; ModuleID = '42/1350.cpp'
source_filename = "42/1350.cpp"
target datalayout = "e-m:e-p270:32:32-p271:32:32-p272:64:64-i64:64-f80:128-n8:16:32:64-S128"
target triple = "x86_64-pc-linux-gnu"

%"class.std::ios_base::Init" = type { i8 }
%"class.std::basic_istream" = type { i32 (...)**, i64, %"class.std::basic_ios" }
%"class.std::basic_ios" = type { %"class.std::ios_base", %"class.std::basic_ostream"*, i8, i8, %"class.std::basic_streambuf"*, %"class.std::ctype"*, %"class.std::num_put"*, %"class.std::num_get"* }
%"class.std::ios_base" = type { i32 (...)**, i64, i64, i32, i32, i32, %"struct.std::ios_base::_Callback_list"*, %"struct.std::ios_base::_Words", [8 x %"struct.std::ios_base::_Words"], i32, %"struct.std::ios_base::_Words"*, %"class.std::locale" }
%"struct.std::ios_base::_Callback_list" = type { %"struct.std::ios_base::_Callback_list"*, void (i32, %"class.std::ios_base"*, i32)*, i32, i32 }
%"struct.std::ios_base::_Words" = type { i8*, i64 }
%"class.std::locale" = type { %"class.std::locale::_Impl"* }
%"class.std::locale::_Impl" = type { i32, %"class.std::locale::facet"**, i64, %"class.std::locale::facet"**, i8** }
%"class.std::locale::facet" = type <{ i32 (...)**, i32, [4 x i8] }>
%"class.std::basic_ostream" = type { i32 (...)**, %"class.std::basic_ios" }
%"class.std::basic_streambuf" = type { i32 (...)**, i8*, i8*, i8*, i8*, i8*, i8*, %"class.std::locale" }
%"class.std::ctype" = type <{ %"class.std::locale::facet.base", [4 x i8], %struct.__locale_struct*, i8, [7 x i8], i32*, i32*, i16*, i8, [256 x i8], [256 x i8], i8, [6 x i8] }>
%"class.std::locale::facet.base" = type <{ i32 (...)**, i32 }>
%struct.__locale_struct = type { [13 x %struct.__locale_data*], i16*, i32*, i32*, [13 x i8*] }
%struct.__locale_data = type opaque
%"class.std::num_put" = type { %"class.std::locale::facet.base", [4 x i8] }
%"class.std::num_get" = type { %"class.std::locale::facet.base", [4 x i8] }

@_ZStL8__ioinit = internal global %"class.std::ios_base::Init" zeroinitializer, align 1
@__dso_handle = external hidden global i8
@_ZSt3cin = external dso_local global %"class.std::basic_istream", align 8
@_ZSt4cout = external dso_local global %"class.std::basic_ostream", align 8
@llvm.global_ctors = appending global [1 x { i32, void ()*, i8* }] [{ i32, void ()*, i8* } { i32 65535, void ()* @_GLOBAL__sub_I_1350.cpp, i8* null }]

; Function Attrs: noinline uwtable
define internal void @__cxx_global_var_init() #0 section ".text.startup" {
  call void @_ZNSt8ios_base4InitC1Ev(%"class.std::ios_base::Init"* @_ZStL8__ioinit)
  %1 = call i32 @__cxa_atexit(void (i8*)* bitcast (void (%"class.std::ios_base::Init"*)* @_ZNSt8ios_base4InitD1Ev to void (i8*)*), i8* getelementptr inbounds (%"class.std::ios_base::Init", %"class.std::ios_base::Init"* @_ZStL8__ioinit, i32 0, i32 0), i8* @__dso_handle) #3
  ret void
}

declare dso_local void @_ZNSt8ios_base4InitC1Ev(%"class.std::ios_base::Init"*) unnamed_addr #1

; Function Attrs: nounwind
declare dso_local void @_ZNSt8ios_base4InitD1Ev(%"class.std::ios_base::Init"*) unnamed_addr #2

; Function Attrs: nounwind
declare dso_local i32 @__cxa_atexit(void (i8*)*, i8*, i8*) #3

; Function Attrs: noinline norecurse uwtable
define dso_local i32 @main() #4 {
  %1 = alloca i32, align 4
  %2 = alloca i32, align 4
  %3 = alloca i32, align 4
  %4 = alloca i32, align 4
  %5 = alloca i8*, align 8
  %6 = alloca i64, align 8
  %7 = alloca i32, align 4
  %8 = alloca i32, align 4
  %9 = alloca i32, align 4
  %10 = alloca i32, align 4
  store i32 0, i32* %1, align 4
  store i32 0, i32* %2, align 4
  store i32 0, i32* %3, align 4
  store i32 0, i32* %4, align 4
  %11 = call dereferenceable(280) %"class.std::basic_istream"* @_ZNSirsERi(%"class.std::basic_istream"* @_ZSt3cin, i32* dereferenceable(4) %2)
  %12 = load i32, i32* %2, align 4
  %13 = zext i32 %12 to i64
  %14 = call i8* @llvm.stacksave()
  store i8* %14, i8** %5, align 8
  %15 = alloca i32, i64 %13, align 16
  store i64 %13, i64* %6, align 8
  store i32 0, i32* %7, align 4
  br label %16

16:                                               ; preds = %25, %0
  %17 = load i32, i32* %7, align 4
  %18 = load i32, i32* %2, align 4
  %19 = icmp slt i32 %17, %18
  br i1 %19, label %20, label %28

20:                                               ; preds = %16
  %21 = load i32, i32* %7, align 4
  %22 = sext i32 %21 to i64
  %23 = getelementptr inbounds i32, i32* %15, i64 %22
  %24 = call dereferenceable(280) %"class.std::basic_istream"* @_ZNSirsERi(%"class.std::basic_istream"* @_ZSt3cin, i32* dereferenceable(4) %23)
  br label %25

25:                                               ; preds = %20
  %26 = load i32, i32* %7, align 4
  %27 = add nsw i32 %26, 1
  store i32 %27, i32* %7, align 4
  br label %16

28:                                               ; preds = %16
  %29 = call dereferenceable(280) %"class.std::basic_istream"* @_ZNSirsERi(%"class.std::basic_istream"* @_ZSt3cin, i32* dereferenceable(4) %3)
  store i32 0, i32* %8, align 4
  br label %30

30:                                               ; preds = %65, %28
  %31 = load i32, i32* %8, align 4
  %32 = load i32, i32* %2, align 4
  %33 = icmp slt i32 %31, %32
  br i1 %33, label %34, label %68

34:                                               ; preds = %30
  %35 = load i32, i32* %8, align 4
  %36 = sext i32 %35 to i64
  %37 = getelementptr inbounds i32, i32* %15, i64 %36
  %38 = load i32, i32* %37, align 4
  %39 = load i32, i32* %3, align 4
  %40 = icmp eq i32 %38, %39
  br i1 %40, label %41, label %64

41:                                               ; preds = %34
  %42 = load i32, i32* %4, align 4
  %43 = add nsw i32 %42, 1
  store i32 %43, i32* %4, align 4
  %44 = load i32, i32* %8, align 4
  store i32 %44, i32* %9, align 4
  br label %45

45:                                               ; preds = %58, %41
  %46 = load i32, i32* %9, align 4
  %47 = load i32, i32* %2, align 4
  %48 = icmp slt i32 %46, %47
  br i1 %48, label %49, label %61

49:                                               ; preds = %45
  %50 = load i32, i32* %9, align 4
  %51 = add nsw i32 %50, 1
  %52 = sext i32 %51 to i64
  %53 = getelementptr inbounds i32, i32* %15, i64 %52
  %54 = load i32, i32* %53, align 4
  %55 = load i32, i32* %9, align 4
  %56 = sext i32 %55 to i64
  %57 = getelementptr inbounds i32, i32* %15, i64 %56
  store i32 %54, i32* %57, align 4
  br label %58

58:                                               ; preds = %49
  %59 = load i32, i32* %9, align 4
  %60 = add nsw i32 %59, 1
  store i32 %60, i32* %9, align 4
  br label %45

61:                                               ; preds = %45
  %62 = load i32, i32* %8, align 4
  %63 = sub nsw i32 %62, 1
  store i32 %63, i32* %8, align 4
  br label %64

64:                                               ; preds = %61, %34
  br label %65

65:                                               ; preds = %64
  %66 = load i32, i32* %8, align 4
  %67 = add nsw i32 %66, 1
  store i32 %67, i32* %8, align 4
  br label %30

68:                                               ; preds = %30
  %69 = getelementptr inbounds i32, i32* %15, i64 0
  %70 = load i32, i32* %69, align 16
  %71 = call dereferenceable(272) %"class.std::basic_ostream"* @_ZNSolsEi(%"class.std::basic_ostream"* @_ZSt4cout, i32 %70)
  store i32 1, i32* %10, align 4
  br label %72

72:                                               ; preds = %85, %68
  %73 = load i32, i32* %10, align 4
  %74 = load i32, i32* %2, align 4
  %75 = load i32, i32* %4, align 4
  %76 = sub nsw i32 %74, %75
  %77 = icmp slt i32 %73, %76
  br i1 %77, label %78, label %88

78:                                               ; preds = %72
  %79 = call dereferenceable(272) %"class.std::basic_ostream"* @_ZStlsISt11char_traitsIcEERSt13basic_ostreamIcT_ES5_c(%"class.std::basic_ostream"* dereferenceable(272) @_ZSt4cout, i8 signext 32)
  %80 = load i32, i32* %10, align 4
  %81 = sext i32 %80 to i64
  %82 = getelementptr inbounds i32, i32* %15, i64 %81
  %83 = load i32, i32* %82, align 4
  %84 = call dereferenceable(272) %"class.std::basic_ostream"* @_ZNSolsEi(%"class.std::basic_ostream"* %79, i32 %83)
  br label %85

85:                                               ; preds = %78
  %86 = load i32, i32* %10, align 4
  %87 = add nsw i32 %86, 1
  store i32 %87, i32* %10, align 4
  br label %72

88:                                               ; preds = %72
  %89 = load i8*, i8** %5, align 8
  call void @llvm.stackrestore(i8* %89)
  %90 = load i32, i32* %1, align 4
  ret i32 %90
}

declare dso_local dereferenceable(280) %"class.std::basic_istream"* @_ZNSirsERi(%"class.std::basic_istream"*, i32* dereferenceable(4)) #1

; Function Attrs: nounwind
declare i8* @llvm.stacksave() #3

declare dso_local dereferenceable(272) %"class.std::basic_ostream"* @_ZNSolsEi(%"class.std::basic_ostream"*, i32) #1

declare dso_local dereferenceable(272) %"class.std::basic_ostream"* @_ZStlsISt11char_traitsIcEERSt13basic_ostreamIcT_ES5_c(%"class.std::basic_ostream"* dereferenceable(272), i8 signext) #1

; Function Attrs: nounwind
declare void @llvm.stackrestore(i8*) #3

; Function Attrs: noinline uwtable
define internal void @_GLOBAL__sub_I_1350.cpp() #0 section ".text.startup" {
  call void @__cxx_global_var_init()
  ret void
}


!llvm.module.flags = !{!0}
!llvm.ident = !{!1}

!0 = !{i32 1, !"wchar_size", i32 4}
!1 = !{!"clang version 10.0.0-4ubuntu1 "}
